target datalayout = "e-m:e-p270:32:32-p271:32:32-p272:64:64-i64:64-i128:128-f80:128-n8:16:32:64-S128"
target triple = "x86_64-pc-linux-gnu"

%"class.Ipopt::Journalist" = type { %"class.Ipopt::ReferencedObject.base", %"class.std::vector" }
%"class.Ipopt::ReferencedObject.base" = type <{ ptr, i32 }>
%"class.std::vector" = type { %"struct.std::_Vector_base" }
%"struct.std::_Vector_base" = type { %"struct.std::_Vector_base<Ipopt::SmartPtr<Ipopt::Journal>, std::allocator<Ipopt::SmartPtr<Ipopt::Journal>>>::_Vector_impl" }
%"struct.std::_Vector_base<Ipopt::SmartPtr<Ipopt::Journal>, std::allocator<Ipopt::SmartPtr<Ipopt::Journal>>>::_Vector_impl" = type { %"struct.std::_Vector_base<Ipopt::SmartPtr<Ipopt::Journal>, std::allocator<Ipopt::SmartPtr<Ipopt::Journal>>>::_Vector_impl_data" }
%"struct.std::_Vector_base<Ipopt::SmartPtr<Ipopt::Journal>, std::allocator<Ipopt::SmartPtr<Ipopt::Journal>>>::_Vector_impl_data" = type { ptr, ptr, ptr }
%"class.Ipopt::SmartPtr" = type { ptr }

; Function Attrs: mustprogress nounwind uwtable
define linkonce_odr noundef ptr @_ZNK5Ipopt8SmartPtrINS_7JournalEEptEv(ptr noundef nonnull align 8 dereferenceable(8) %0) #1 comdat align 2 {
  %2 = alloca ptr, align 8
  store ptr %0, ptr %2, align 8
  %3 = load ptr, ptr %2, align 8
  %4 = getelementptr inbounds %"class.Ipopt::SmartPtr", ptr %3, i32 0, i32 0
  %5 = load ptr, ptr %4, align 8
  ret ptr %5
}

; Function Attrs: mustprogress nounwind uwtable
define linkonce_odr noundef nonnull align 8 dereferenceable(8) ptr @_ZNKSt6vectorIN5Ipopt8SmartPtrINS0_7JournalEEESaIS3_EEixEm(ptr noundef nonnull align 8 dereferenceable(24) %0, i64 noundef %1) #1 comdat align 2 {
  %3 = alloca ptr, align 8
  %4 = alloca i64, align 8
  store ptr %0, ptr %3, align 8
  store i64 %1, ptr %4, align 8
  %5 = load ptr, ptr %3, align 8
  %6 = getelementptr inbounds %"struct.std::_Vector_base", ptr %5, i32 0, i32 0
  %7 = getelementptr inbounds %"struct.std::_Vector_base<Ipopt::SmartPtr<Ipopt::Journal>, std::allocator<Ipopt::SmartPtr<Ipopt::Journal>>>::_Vector_impl_data", ptr %6, i32 0, i32 0
  %8 = load ptr, ptr %7, align 8
  %9 = load i64, ptr %4, align 8
  %10 = getelementptr inbounds %"class.Ipopt::SmartPtr", ptr %8, i64 %9
  ret ptr %10
}

; Function Attrs: mustprogress nounwind uwtable
define linkonce_odr noundef i64 @_ZNKSt6vectorIN5Ipopt8SmartPtrINS0_7JournalEEESaIS3_EE4sizeEv(ptr noundef nonnull align 8 dereferenceable(24) %0) #1 comdat align 2 {
  %2 = alloca ptr, align 8
  store ptr %0, ptr %2, align 8
  %3 = load ptr, ptr %2, align 8
  %4 = getelementptr inbounds %"struct.std::_Vector_base", ptr %3, i32 0, i32 0
  %5 = getelementptr inbounds %"struct.std::_Vector_base<Ipopt::SmartPtr<Ipopt::Journal>, std::allocator<Ipopt::SmartPtr<Ipopt::Journal>>>::_Vector_impl_data", ptr %4, i32 0, i32 1
  %6 = load ptr, ptr %5, align 8
  %7 = getelementptr inbounds %"struct.std::_Vector_base", ptr %3, i32 0, i32 0
  %8 = getelementptr inbounds %"struct.std::_Vector_base<Ipopt::SmartPtr<Ipopt::Journal>, std::allocator<Ipopt::SmartPtr<Ipopt::Journal>>>::_Vector_impl_data", ptr %7, i32 0, i32 0
  %9 = load ptr, ptr %8, align 8
  %10 = ptrtoint ptr %6 to i64
  %11 = ptrtoint ptr %9 to i64
  %12 = sub i64 %10, %11
  %13 = sdiv exact i64 %12, 8
  ret i64 %13
}

; Function Attrs: mustprogress uwtable
define void @_ZNK5Ipopt10Journalist11FlushBufferEv(ptr noundef nonnull align 8 dereferenceable(40) %0) unnamed_addr #0 align 2 {
  %2 = alloca ptr, align 8
  %3 = alloca i32, align 4
  store ptr %0, ptr %2, align 8
  %4 = load ptr, ptr %2, align 8
  store i32 0, ptr %3, align 4
  br label %5

5:                                                ; preds = %20, %1
  %6 = load i32, ptr %3, align 4
  %7 = getelementptr inbounds %"class.Ipopt::Journalist", ptr %4, i32 0, i32 1
  %8 = call noundef i64 @_ZNKSt6vectorIN5Ipopt8SmartPtrINS0_7JournalEEESaIS3_EE4sizeEv(ptr noundef nonnull align 8 dereferenceable(24) %7) #11
  %9 = trunc i64 %8 to i32
  %10 = icmp slt i32 %6, %9
  br i1 %10, label %11, label %23

11:                                               ; preds = %5
  %12 = getelementptr inbounds %"class.Ipopt::Journalist", ptr %4, i32 0, i32 1
  %13 = load i32, ptr %3, align 4
  %14 = sext i32 %13 to i64
  %15 = call noundef nonnull align 8 dereferenceable(8) ptr @_ZNKSt6vectorIN5Ipopt8SmartPtrINS0_7JournalEEESaIS3_EEixEm(ptr noundef nonnull align 8 dereferenceable(24) %12, i64 noundef %14) #11
  %16 = call noundef ptr @_ZNK5Ipopt8SmartPtrINS_7JournalEEptEv(ptr noundef nonnull align 8 dereferenceable(8) %15)
  %17 = load ptr, ptr %16, align 8
  %18 = getelementptr inbounds ptr, ptr %17, i64 8
  %19 = load ptr, ptr %18, align 8
  call void %19(ptr noundef nonnull align 8 dereferenceable(176) %16)
  br label %20

20:                                               ; preds = %11
  %21 = load i32, ptr %3, align 4
  %22 = add nsw i32 %21, 1
  store i32 %22, ptr %3, align 4
  br label %5, !llvm.loop !12

23:                                               ; preds = %5
  ret void
}